; Function Attrs: nounwind uwtable
define internal void @_pop_menu_dictionary_copy_tag(ptr readnone captures(none) %0, ptr noundef readonly captures(none) %1) #1 {
  %3 = alloca %struct._GtkTreeIter, align 8
  %4 = alloca ptr, align 8
  %5 = alloca ptr, align 8
  %6 = getelementptr inbounds nuw i8, ptr %1, i64 280
  %7 = load ptr, ptr %6, align 8, !tbaa !6
  call void @llvm.lifetime.start.p0(i64 32, ptr nonnull %3) #16
  call void @llvm.lifetime.start.p0(i64 8, ptr nonnull %4) #16
  %8 = getelementptr inbounds nuw i8, ptr %7, i64 1048
  %9 = load ptr, ptr %8, align 8, !tbaa !27
  %10 = tail call i64 @gtk_tree_view_get_type() #17
  %11 = tail call ptr @g_type_check_instance_cast(ptr noundef %9, i64 noundef %10) #16
  %12 = tail call ptr @gtk_tree_view_get_model(ptr noundef %11) #16
  store ptr %12, ptr %4, align 8, !tbaa !29
  %13 = load ptr, ptr %8, align 8, !tbaa !27
  %14 = tail call ptr @g_type_check_instance_cast(ptr noundef %13, i64 noundef %10) #16
  %15 = tail call ptr @gtk_tree_view_get_selection(ptr noundef %14) #16
  %16 = call i32 @gtk_tree_selection_get_selected(ptr noundef %15, ptr noundef nonnull %4, ptr noundef nonnull %3) #16
  %.not = icmp eq i32 %16, 0
  br i1 %.not, label %24, label %17

17:                                               ; preds = %2
  call void @llvm.lifetime.start.p0(i64 8, ptr nonnull %5) #16
  %18 = load ptr, ptr %4, align 8, !tbaa !29
  call void (ptr, ptr, ...) @gtk_tree_model_get(ptr noundef %18, ptr noundef nonnull %3, i32 noundef 2, ptr noundef nonnull %5, i32 noundef -1) #16
  %19 = getelementptr inbounds nuw i8, ptr %7, i64 1024
  %20 = load ptr, ptr %19, align 8, !tbaa !95
  %21 = load ptr, ptr %5, align 8, !tbaa !31
  call void @gtk_entry_set_text(ptr noundef %20, ptr noundef %21) #16
  %22 = load ptr, ptr %5, align 8, !tbaa !31
  call void @g_free(ptr noundef %22) #16
  %23 = load ptr, ptr %19, align 8, !tbaa !95
  call void @gtk_entry_grab_focus_without_selecting(ptr noundef %23) #16
  call void @llvm.lifetime.end.p0(i64 8, ptr nonnull %5) #16
  br label %24

24:                                               ; preds = %17, %2
  call void @llvm.lifetime.end.p0(i64 8, ptr nonnull %4) #16
  call void @llvm.lifetime.end.p0(i64 32, ptr nonnull %3) #16
  ret void
}